target datalayout = "e-m:e-p270:32:32-p271:32:32-p272:64:64-i64:64-i128:128-f80:128-n8:16:32:64-S128"
target triple = "x86_64-pc-linux-gnu"

%struct.X509_name_entry_st = type { ptr, ptr, i32, i32 }

@.str = private unnamed_addr constant [126 x i8] c"generated/home/dtcxzyw/WorkSpace/Projects/compilers/llvm-opt-benchmark/bench/libquic/libquic/boringssl/crypto/x509/x509name.c\00", align 1

; Function Attrs: nounwind uwtable
define hidden i32 @X509_NAME_ENTRY_set_object(ptr noundef %0, ptr noundef %1) #0 {
  %3 = alloca i32, align 4
  %4 = alloca ptr, align 8
  %5 = alloca ptr, align 8
  store ptr %0, ptr %4, align 8, !tbaa !29
  store ptr %1, ptr %5, align 8, !tbaa !15
  %6 = load ptr, ptr %4, align 8, !tbaa !29
  %7 = icmp eq ptr %6, null
  br i1 %7, label %11, label %8

8:                                                ; preds = %2
  %9 = load ptr, ptr %5, align 8, !tbaa !15
  %10 = icmp eq ptr %9, null
  br i1 %10, label %11, label %12

11:                                               ; preds = %8, %2
  call void @ERR_put_error(i32 noundef 11, i32 noundef 0, i32 noundef 67, ptr noundef @.str, i32 noundef 341)
  store i32 0, ptr %3, align 4
  br label %25

12:                                               ; preds = %8
  %13 = load ptr, ptr %4, align 8, !tbaa !29
  %14 = getelementptr inbounds nuw %struct.X509_name_entry_st, ptr %13, i32 0, i32 0
  %15 = load ptr, ptr %14, align 8, !tbaa !31
  call void @ASN1_OBJECT_free(ptr noundef %15)
  %16 = load ptr, ptr %5, align 8, !tbaa !15
  %17 = call ptr @OBJ_dup(ptr noundef %16)
  %18 = load ptr, ptr %4, align 8, !tbaa !29
  %19 = getelementptr inbounds nuw %struct.X509_name_entry_st, ptr %18, i32 0, i32 0
  store ptr %17, ptr %19, align 8, !tbaa !31
  %20 = load ptr, ptr %4, align 8, !tbaa !29
  %21 = getelementptr inbounds nuw %struct.X509_name_entry_st, ptr %20, i32 0, i32 0
  %22 = load ptr, ptr %21, align 8, !tbaa !31
  %23 = icmp eq ptr %22, null
  %24 = select i1 %23, i32 0, i32 1
  store i32 %24, ptr %3, align 4
  br label %25

25:                                               ; preds = %12, %11
  %26 = load i32, ptr %3, align 4
  ret i32 %26
}